; Function Attrs: nounwind uwtable
define internal void @shm_mq_detach_callback(ptr readnone captures(none) %0, i64 noundef %1) #0 {
  %3 = inttoptr i64 %1 to ptr
  %4 = tail call i8 asm sideeffect "\09lock\09\09\09\0A\09xchgb\09$0,$1\09\0A", "=q,=*m,0,*m,~{memory},~{cc},~{dirflag},~{fpsr},~{flags}"(ptr elementtype(i8) %3, i8 1, ptr elementtype(i8) %3) #11, !srcloc !5
  %.not.i = icmp eq i8 %4, 0
  br i1 %.not.i, label %7, label %5

5:                                                ; preds = %2
  %6 = tail call i32 @s_lock(ptr noundef %3, ptr noundef nonnull @.str, i32 noundef 886, ptr noundef nonnull @__func__.shm_mq_detach_internal) #11
  br label %7

7:                                                ; preds = %5, %2
  %8 = getelementptr inbounds nuw i8, ptr %3, i64 16
  %9 = load ptr, ptr %8, align 8
  %10 = load ptr, ptr @MyProc, align 8
  %11 = icmp eq ptr %9, %10
  br i1 %11, label %12, label %15

12:                                               ; preds = %7
  %13 = getelementptr inbounds nuw i8, ptr %3, i64 8
  %14 = load ptr, ptr %13, align 8
  br label %15

15:                                               ; preds = %12, %7
  %.0.i = phi ptr [ %14, %12 ], [ %9, %7 ]
  %16 = getelementptr inbounds nuw i8, ptr %3, i64 48
  store i8 1, ptr %16, align 8
  tail call void asm sideeffect "", "~{memory},~{dirflag},~{fpsr},~{flags}"() #11, !srcloc !10
  store i8 0, ptr %3, align 8
  %.not10.i = icmp eq ptr %.0.i, null
  br i1 %.not10.i, label %shm_mq_detach_internal.exit, label %17

17:                                               ; preds = %15
  %18 = getelementptr inbounds nuw i8, ptr %.0.i, i64 36
  tail call void @SetLatch(ptr noundef nonnull %18) #11
  br label %shm_mq_detach_internal.exit

shm_mq_detach_internal.exit:                      ; preds = %15, %17
  ret void
}